; Function Attrs: mustprogress nofree nounwind willreturn memory(readwrite, inaccessiblemem: write) uwtable
define hidden void @_ZN19OpenColorIO_v2_5dev16ComputeParamsRevERKSt6vectorIdSaIdEERNS_14RendererParamsE(ptr noundef nonnull readonly align 8 captures(none) dereferenceable(24) %0, ptr noundef nonnull writeonly align 4 captures(none) dereferenceable(20) initializes((0, 20)) %1) local_unnamed_addr #3 {
  %.val = load ptr, ptr %0, align 8, !tbaa !3
  %3 = load double, ptr %.val, align 8, !tbaa !9
  %4 = fcmp olt double %3, 0x3FF000010C6F7A0B
  %.sroa.speculated.i = select i1 %4, double 0x3FF000010C6F7A0B, double %3
  %5 = fdiv double 1.000000e+00, %.sroa.speculated.i
  %6 = fptrunc double %5 to float
  store float %6, ptr %1, align 4, !tbaa !11
  %7 = getelementptr inbounds nuw i8, ptr %.val, i64 8
  %8 = load double, ptr %7, align 8, !tbaa !9
  %9 = fcmp olt double %8, 0x3EB0C6F7A0B5ED8D
  %10 = select i1 %9, double 0x3EB0C6F7A0B5ED8D, double %8
  %11 = fptrunc double %10 to float
  %12 = getelementptr inbounds nuw i8, ptr %1, i64 4
  store float %11, ptr %12, align 4, !tbaa !14
  %13 = fmul double %.sroa.speculated.i, %10
  %14 = fadd double %.sroa.speculated.i, -1.000000e+00
  %15 = fadd double %10, 1.000000e+00
  %16 = fmul double %14, %15
  %17 = fdiv double %13, %16
  %18 = tail call noundef double @pow(double noundef %17, double noundef %.sroa.speculated.i) #6, !tbaa !16
  %19 = fptrunc double %18 to float
  %20 = getelementptr inbounds nuw i8, ptr %1, i64 8
  store float %19, ptr %20, align 4, !tbaa !15
  %21 = fdiv double %14, %10
  %22 = fdiv double %15, %.sroa.speculated.i
  %23 = tail call double @pow(double noundef %21, double noundef %14) #6, !tbaa !16
  %24 = tail call double @pow(double noundef %22, double noundef %.sroa.speculated.i) #6, !tbaa !16
  %25 = fmul double %23, %24
  %26 = fptrunc double %25 to float
  %27 = getelementptr inbounds nuw i8, ptr %1, i64 12
  store float %26, ptr %27, align 4, !tbaa !18
  %28 = fptrunc double %15 to float
  %29 = getelementptr inbounds nuw i8, ptr %1, i64 16
  store float %28, ptr %29, align 4, !tbaa !19
  ret void
}